; ModuleID = 'source-C-CXX/29/2278.c'
source_filename = "source-C-CXX/29/2278.c"
target datalayout = "e-m:e-p270:32:32-p271:32:32-p272:64:64-i64:64-f80:128-n8:16:32:64-S128"
target triple = "x86_64-pc-linux-gnu"

@.str = private unnamed_addr constant [3 x i8] c"%d\00", align 1

; Function Attrs: nofree nounwind sspstrong uwtable
define dso_local i32 @main() local_unnamed_addr #0 {
  %1 = alloca i32, align 4
  %2 = bitcast i32* %1 to i8*
  call void @llvm.lifetime.start.p0i8(i64 4, i8* nonnull %2) #4
  %3 = call i32 (i8*, ...) @__isoc99_scanf(i8* getelementptr inbounds ([3 x i8], [3 x i8]* @.str, i64 0, i64 0), i32* nonnull %1)
  %4 = load i32, i32* %1, align 4, !tbaa !5
  %5 = icmp slt i32 %4, 0
  br i1 %5, label %6, label %9

6:                                                ; preds = %9, %0
  %7 = phi i32 [ 0, %0 ], [ %16, %9 ]
  %8 = call i32 (i8*, ...) @printf(i8* nonnull dereferenceable(1) getelementptr inbounds ([3 x i8], [3 x i8]* @.str, i64 0, i64 0), i32 %7)
  call void @llvm.lifetime.end.p0i8(i64 4, i8* nonnull %2) #4
  ret i32 0

9:                                                ; preds = %0, %9
  %10 = phi i32 [ %17, %9 ], [ 0, %0 ]
  %11 = phi i32 [ %16, %9 ], [ 0, %0 ]
  %12 = call i32 @yu7wuguan(i32 %10)
  %13 = icmp eq i32 %12, 0
  %14 = mul nsw i32 %10, %10
  %15 = select i1 %13, i32 0, i32 %14
  %16 = add nuw nsw i32 %15, %11
  %17 = add nuw i32 %10, 1
  %18 = icmp eq i32 %10, %4
  br i1 %18, label %6, label %9, !llvm.loop !9
}

; Function Attrs: argmemonly mustprogress nofree nosync nounwind willreturn
declare void @llvm.lifetime.start.p0i8(i64 immarg, i8* nocapture) #1

; Function Attrs: nofree nounwind
declare noundef i32 @__isoc99_scanf(i8* nocapture noundef readonly, ...) local_unnamed_addr #2

; Function Attrs: mustprogress nofree norecurse nosync nounwind readnone sspstrong uwtable willreturn
define dso_local i32 @yu7wuguan(i32 %0) local_unnamed_addr #3 {
  %2 = freeze i32 %0
  %3 = srem i32 %2, 7
  %4 = icmp eq i32 %3, 0
  br i1 %4, label %7, label %5

5:                                                ; preds = %1
  switch i32 %2, label %6 [
    i32 97, label %7
    i32 87, label %7
    i32 79, label %7
    i32 78, label %7
    i32 77, label %7
    i32 76, label %7
    i32 75, label %7
    i32 74, label %7
    i32 73, label %7
    i32 72, label %7
    i32 71, label %7
    i32 70, label %7
    i32 67, label %7
    i32 57, label %7
    i32 47, label %7
    i32 37, label %7
    i32 27, label %7
    i32 17, label %7
  ]

6:                                                ; preds = %5
  br label %7

7:                                                ; preds = %1, %5, %5, %5, %5, %5, %5, %5, %5, %5, %5, %5, %5, %5, %5, %5, %5, %5, %5, %6
  %8 = phi i32 [ 1, %6 ], [ 0, %5 ], [ 0, %5 ], [ 0, %5 ], [ 0, %5 ], [ 0, %5 ], [ 0, %5 ], [ 0, %5 ], [ 0, %5 ], [ 0, %5 ], [ 0, %5 ], [ 0, %5 ], [ 0, %5 ], [ 0, %5 ], [ 0, %5 ], [ 0, %5 ], [ 0, %5 ], [ 0, %5 ], [ 0, %5 ], [ 0, %1 ]
  ret i32 %8
}

; Function Attrs: argmemonly mustprogress nofree nosync nounwind willreturn
declare void @llvm.lifetime.end.p0i8(i64 immarg, i8* nocapture) #1

; Function Attrs: nofree nounwind
declare noundef i32 @printf(i8* nocapture noundef readonly, ...) local_unnamed_addr #2


!llvm.module.flags = !{!0, !1, !2, !3}
!llvm.ident = !{!4}

!0 = !{i32 1, !"wchar_size", i32 4}
!1 = !{i32 7, !"PIC Level", i32 2}
!2 = !{i32 7, !"PIE Level", i32 2}
!3 = !{i32 7, !"uwtable", i32 1}
!4 = !{!"clang version 13.0.0"}
!5 = !{!6, !6, i64 0}
!6 = !{!"int", !7, i64 0}
!7 = !{!"omnipotent char", !8, i64 0}
!8 = !{!"Simple C/C++ TBAA"}
!9 = distinct !{!9, !10}
!10 = !{!"llvm.loop.mustprogress"}
